; ModuleID = '47/4931.c'
source_filename = "47/4931.c"
target datalayout = "e-m:e-p270:32:32-p271:32:32-p272:64:64-i64:64-f80:128-n8:16:32:64-S128"
target triple = "x86_64-pc-linux-gnu"

@.str = private unnamed_addr constant [3 x i8] c"%d\00", align 1
@.str.1 = private unnamed_addr constant [4 x i8] c" %d\00", align 1

; Function Attrs: noinline nounwind uwtable
define dso_local void @main() #0 {
  %1 = alloca i32, align 4
  %2 = alloca [100 x i32], align 16
  %3 = alloca [100 x i32], align 16
  %4 = alloca i32*, align 8
  %5 = alloca i32*, align 8
  %6 = call i32 (i8*, ...) @__isoc99_scanf(i8* getelementptr inbounds ([3 x i8], [3 x i8]* @.str, i64 0, i64 0), i32* %1)
  %7 = getelementptr inbounds [100 x i32], [100 x i32]* %3, i64 0, i64 0
  %8 = load i32, i32* %1, align 4
  %9 = sext i32 %8 to i64
  %10 = getelementptr inbounds i32, i32* %7, i64 %9
  %11 = getelementptr inbounds i32, i32* %10, i64 -1
  store i32* %11, i32** %5, align 8
  %12 = getelementptr inbounds [100 x i32], [100 x i32]* %2, i64 0, i64 0
  store i32* %12, i32** %4, align 8
  br label %13

13:                                               ; preds = %28, %0
  %14 = load i32*, i32** %4, align 8
  %15 = getelementptr inbounds [100 x i32], [100 x i32]* %2, i64 0, i64 0
  %16 = load i32, i32* %1, align 4
  %17 = sext i32 %16 to i64
  %18 = getelementptr inbounds i32, i32* %15, i64 %17
  %19 = icmp ult i32* %14, %18
  br i1 %19, label %20, label %31

20:                                               ; preds = %13
  %21 = load i32*, i32** %4, align 8
  %22 = call i32 (i8*, ...) @__isoc99_scanf(i8* getelementptr inbounds ([3 x i8], [3 x i8]* @.str, i64 0, i64 0), i32* %21)
  %23 = load i32*, i32** %4, align 8
  %24 = load i32, i32* %23, align 4
  %25 = load i32*, i32** %5, align 8
  store i32 %24, i32* %25, align 4
  %26 = load i32*, i32** %5, align 8
  %27 = getelementptr inbounds i32, i32* %26, i32 -1
  store i32* %27, i32** %5, align 8
  br label %28

28:                                               ; preds = %20
  %29 = load i32*, i32** %4, align 8
  %30 = getelementptr inbounds i32, i32* %29, i32 1
  store i32* %30, i32** %4, align 8
  br label %13

31:                                               ; preds = %13
  %32 = getelementptr inbounds [100 x i32], [100 x i32]* %3, i64 0, i64 0
  store i32* %32, i32** %5, align 8
  %33 = load i32*, i32** %5, align 8
  %34 = load i32, i32* %33, align 4
  %35 = call i32 (i8*, ...) @printf(i8* getelementptr inbounds ([3 x i8], [3 x i8]* @.str, i64 0, i64 0), i32 %34)
  %36 = getelementptr inbounds [100 x i32], [100 x i32]* %3, i64 0, i64 0
  %37 = getelementptr inbounds i32, i32* %36, i64 1
  store i32* %37, i32** %5, align 8
  br label %38

38:                                               ; preds = %49, %31
  %39 = load i32*, i32** %5, align 8
  %40 = getelementptr inbounds [100 x i32], [100 x i32]* %3, i64 0, i64 0
  %41 = load i32, i32* %1, align 4
  %42 = sext i32 %41 to i64
  %43 = getelementptr inbounds i32, i32* %40, i64 %42
  %44 = icmp ult i32* %39, %43
  br i1 %44, label %45, label %52

45:                                               ; preds = %38
  %46 = load i32*, i32** %5, align 8
  %47 = load i32, i32* %46, align 4
  %48 = call i32 (i8*, ...) @printf(i8* getelementptr inbounds ([4 x i8], [4 x i8]* @.str.1, i64 0, i64 0), i32 %47)
  br label %49

49:                                               ; preds = %45
  %50 = load i32*, i32** %5, align 8
  %51 = getelementptr inbounds i32, i32* %50, i32 1
  store i32* %51, i32** %5, align 8
  br label %38

52:                                               ; preds = %38
  ret void
}

declare dso_local i32 @__isoc99_scanf(i8*, ...) #1

declare dso_local i32 @printf(i8*, ...) #1


!llvm.module.flags = !{!0}
!llvm.ident = !{!1}

!0 = !{i32 1, !"wchar_size", i32 4}
!1 = !{!"clang version 10.0.0-4ubuntu1 "}
